; Function Attrs: mustprogress nofree norecurse nosync nounwind willreturn memory(read, inaccessiblemem: none) uwtable
define zeroext i1 @lv_display_is_invalidation_enabled(ptr noundef readonly %0) local_unnamed_addr #6 {
  %.not = icmp eq ptr %0, null
  br i1 %.not, label %2, label %.thread

2:                                                ; preds = %1
  %3 = load ptr, ptr getelementptr inbounds nuw (i8, ptr @lv_global, i64 40), align 8, !tbaa !33
  %.not6 = icmp eq ptr %3, null
  br i1 %.not6, label %7, label %.thread

.thread:                                          ; preds = %1, %2
  %.09 = phi ptr [ %3, %2 ], [ %0, %1 ]
  %4 = getelementptr inbounds nuw i8, ptr %.09, i64 644
  %5 = load i32, ptr %4, align 4, !tbaa !31
  %6 = icmp sgt i32 %5, 0
  br label %7

7:                                                ; preds = %2, %.thread
  %.04 = phi i1 [ %6, %.thread ], [ false, %2 ]
  ret i1 %.04
}